target datalayout = "e-m:e-p270:32:32-p271:32:32-p272:64:64-i64:64-i128:128-f80:128-n8:16:32:64-S128"
target triple = "x86_64-pc-linux-gnu"

%struct.Cbs2_Par_t_ = type { i32, i32, i32, i32, i32, i32, i32, i32, i32, i32, i32, i32 }
%struct.Cbs2_Man_t_ = type { %struct.Cbs2_Par_t_, ptr, %struct.Cbs2_Que_t_, %struct.Cbs2_Que_t_, %struct.Cbs2_Que_t_, ptr, ptr, %struct.Vec_Str_t_, %struct.Vec_Str_t_, %struct.Vec_Int_t_, %struct.Vec_Int_t_, %struct.Vec_Int_t_, %struct.Vec_Int_t_, %struct.Vec_Int_t_, %struct.Vec_Int_t_, %struct.Vec_Int_t_, %struct.Vec_Int_t_, i32, i32, i32, i32, i32, i32, i32, i64, i64, i64, i64, i64, [3 x i32], [2 x i32], i32 }
%struct.Cbs2_Que_t_ = type { i32, i32, i32, ptr }
%struct.Vec_Str_t_ = type { i32, i32, ptr }
%struct.Vec_Int_t_ = type { i32, i32, ptr }
%struct.Gia_Man_t_ = type { ptr, ptr, i32, i32, i32, i32, ptr, ptr, i32, i32, i32, ptr, ptr, %struct.Vec_Int_t_, %struct.Vec_Int_t_, i32, i32, i32, %struct.Vec_Int_t_, ptr, ptr, ptr, i32, i32, i32, i32, ptr, ptr, ptr, ptr, ptr, i32, i32, ptr, i32, ptr, ptr, ptr, ptr, ptr, ptr, ptr, ptr, ptr, ptr, ptr, ptr, ptr, ptr, ptr, ptr, ptr, ptr, %struct.Vec_Int_t_, %struct.Vec_Int_t_, ptr, ptr, ptr, ptr, ptr, ptr, ptr, ptr, ptr, ptr, ptr, ptr, ptr, ptr, ptr, ptr, ptr, ptr, ptr, ptr, ptr, i32, float, float, ptr, ptr, i32, ptr, ptr, ptr, ptr, ptr, ptr, ptr, ptr, ptr, ptr, ptr, ptr, ptr, ptr, ptr, i64, i64, ptr, ptr, i32, i32, i32, i32, i32, i32, i32, i32, i32, i32, i32, i32, ptr, ptr, ptr, ptr, ptr, ptr, ptr, ptr, i32, i32, i32, ptr, i32, i32, ptr, ptr, ptr, ptr, ptr, ptr, i32, i32, ptr, %struct.Vec_Int_t_, %struct.Vec_Int_t_, %struct.Vec_Int_t_, ptr, ptr, ptr, i32, i32, i32, i32, ptr, ptr, ptr, ptr, ptr }
%struct.Gia_Obj_t_ = type <{ i64, i32 }>

; Function Attrs: inlinehint nounwind uwtable
define internal void @Vec_IntWriteEntry(ptr noundef %0, i32 noundef %1, i32 noundef %2) #5 {
  %4 = alloca ptr, align 8
  %5 = alloca i32, align 4
  %6 = alloca i32, align 4
  store ptr %0, ptr %4, align 8, !tbaa !42
  store i32 %1, ptr %5, align 4, !tbaa !19
  store i32 %2, ptr %6, align 4, !tbaa !19
  %7 = load i32, ptr %6, align 4, !tbaa !19
  %8 = load ptr, ptr %4, align 8, !tbaa !42
  %9 = getelementptr inbounds nuw %struct.Vec_Int_t_, ptr %8, i32 0, i32 2
  %10 = load ptr, ptr %9, align 8, !tbaa !45
  %11 = load i32, ptr %5, align 4, !tbaa !19
  %12 = sext i32 %11 to i64
  %13 = getelementptr inbounds i32, ptr %10, i64 %12
  store i32 %7, ptr %13, align 4, !tbaa !19
  ret void
}

; Function Attrs: inlinehint nounwind uwtable
define internal i32 @Vec_IntEntry(ptr noundef %0, i32 noundef %1) #5 {
  %3 = alloca ptr, align 8
  %4 = alloca i32, align 4
  store ptr %0, ptr %3, align 8, !tbaa !42
  store i32 %1, ptr %4, align 4, !tbaa !19
  %5 = load ptr, ptr %3, align 8, !tbaa !42
  %6 = getelementptr inbounds nuw %struct.Vec_Int_t_, ptr %5, i32 0, i32 2
  %7 = load ptr, ptr %6, align 8, !tbaa !45
  %8 = load i32, ptr %4, align 4, !tbaa !19
  %9 = sext i32 %8 to i64
  %10 = getelementptr inbounds i32, ptr %7, i64 %9
  %11 = load i32, ptr %10, align 4, !tbaa !19
  ret i32 %11
}

; Function Attrs: inlinehint nounwind uwtable
define internal i32 @Abc_Var2Lit(i32 noundef %0, i32 noundef %1) #5 {
  %3 = alloca i32, align 4
  %4 = alloca i32, align 4
  store i32 %0, ptr %3, align 4, !tbaa !19
  store i32 %1, ptr %4, align 4, !tbaa !19
  %5 = load i32, ptr %3, align 4, !tbaa !19
  %6 = load i32, ptr %3, align 4, !tbaa !19
  %7 = add nsw i32 %5, %6
  %8 = load i32, ptr %4, align 4, !tbaa !19
  %9 = add nsw i32 %7, %8
  ret i32 %9
}

; Function Attrs: nounwind uwtable
define void @Cbs2_ObjCreateFanout(ptr noundef %0, i32 noundef %1, i32 noundef %2, i32 noundef %3) #0 {
  %5 = alloca ptr, align 8
  %6 = alloca i32, align 4
  %7 = alloca i32, align 4
  %8 = alloca i32, align 4
  store ptr %0, ptr %5, align 8, !tbaa !17
  store i32 %1, ptr %6, align 4, !tbaa !19
  store i32 %2, ptr %7, align 4, !tbaa !19
  store i32 %3, ptr %8, align 4, !tbaa !19
  %9 = load ptr, ptr %5, align 8, !tbaa !17
  %10 = getelementptr inbounds nuw %struct.Cbs2_Man_t_, ptr %9, i32 0, i32 12
  %11 = load i32, ptr %6, align 4, !tbaa !19
  %12 = call i32 @Abc_Var2Lit(i32 noundef %11, i32 noundef 0)
  %13 = load ptr, ptr %5, align 8, !tbaa !17
  %14 = getelementptr inbounds nuw %struct.Cbs2_Man_t_, ptr %13, i32 0, i32 13
  %15 = load i32, ptr %7, align 4, !tbaa !19
  %16 = call i32 @Vec_IntEntry(ptr noundef %14, i32 noundef %15)
  call void @Vec_IntWriteEntry(ptr noundef %10, i32 noundef %12, i32 noundef %16)
  %17 = load ptr, ptr %5, align 8, !tbaa !17
  %18 = getelementptr inbounds nuw %struct.Cbs2_Man_t_, ptr %17, i32 0, i32 12
  %19 = load i32, ptr %6, align 4, !tbaa !19
  %20 = call i32 @Abc_Var2Lit(i32 noundef %19, i32 noundef 1)
  %21 = load ptr, ptr %5, align 8, !tbaa !17
  %22 = getelementptr inbounds nuw %struct.Cbs2_Man_t_, ptr %21, i32 0, i32 13
  %23 = load i32, ptr %8, align 4, !tbaa !19
  %24 = call i32 @Vec_IntEntry(ptr noundef %22, i32 noundef %23)
  call void @Vec_IntWriteEntry(ptr noundef %18, i32 noundef %20, i32 noundef %24)
  %25 = load ptr, ptr %5, align 8, !tbaa !17
  %26 = getelementptr inbounds nuw %struct.Cbs2_Man_t_, ptr %25, i32 0, i32 13
  %27 = load i32, ptr %7, align 4, !tbaa !19
  %28 = load i32, ptr %6, align 4, !tbaa !19
  %29 = call i32 @Abc_Var2Lit(i32 noundef %28, i32 noundef 0)
  call void @Vec_IntWriteEntry(ptr noundef %26, i32 noundef %27, i32 noundef %29)
  %30 = load ptr, ptr %5, align 8, !tbaa !17
  %31 = getelementptr inbounds nuw %struct.Cbs2_Man_t_, ptr %30, i32 0, i32 13
  %32 = load i32, ptr %8, align 4, !tbaa !19
  %33 = load i32, ptr %6, align 4, !tbaa !19
  %34 = call i32 @Abc_Var2Lit(i32 noundef %33, i32 noundef 1)
  call void @Vec_IntWriteEntry(ptr noundef %31, i32 noundef %32, i32 noundef %34)
  ret void
}

; Function Attrs: inlinehint nounwind uwtable
define internal i32 @Gia_ObjFaninId1(ptr noundef %0, i32 noundef %1) #5 {
  %3 = alloca ptr, align 8
  %4 = alloca i32, align 4
  store ptr %0, ptr %3, align 8, !tbaa !75
  store i32 %1, ptr %4, align 4, !tbaa !19
  %5 = load i32, ptr %4, align 4, !tbaa !19
  %6 = load ptr, ptr %3, align 8, !tbaa !75
  %7 = load i64, ptr %6, align 4
  %8 = lshr i64 %7, 32
  %9 = and i64 %8, 536870911
  %10 = trunc i64 %9 to i32
  %11 = sub nsw i32 %5, %10
  ret i32 %11
}

; Function Attrs: inlinehint nounwind uwtable
define internal i32 @Gia_ObjFaninId0(ptr noundef %0, i32 noundef %1) #5 {
  %3 = alloca ptr, align 8
  %4 = alloca i32, align 4
  store ptr %0, ptr %3, align 8, !tbaa !75
  store i32 %1, ptr %4, align 4, !tbaa !19
  %5 = load i32, ptr %4, align 4, !tbaa !19
  %6 = load ptr, ptr %3, align 8, !tbaa !75
  %7 = load i64, ptr %6, align 4
  %8 = and i64 %7, 536870911
  %9 = trunc i64 %8 to i32
  %10 = sub nsw i32 %5, %9
  ret i32 %10
}

; Function Attrs: inlinehint nounwind uwtable
define internal i32 @Gia_ObjIsCi(ptr noundef %0) #5 {
  %2 = alloca ptr, align 8
  store ptr %0, ptr %2, align 8, !tbaa !75
  %3 = load ptr, ptr %2, align 8, !tbaa !75
  %4 = load i64, ptr %3, align 4
  %5 = lshr i64 %4, 31
  %6 = and i64 %5, 1
  %7 = trunc i64 %6 to i32
  %8 = icmp ne i32 %7, 0
  br i1 %8, label %9, label %15

9:                                                ; preds = %1
  %10 = load ptr, ptr %2, align 8, !tbaa !75
  %11 = load i64, ptr %10, align 4
  %12 = and i64 %11, 536870911
  %13 = trunc i64 %12 to i32
  %14 = icmp eq i32 %13, 536870911
  br label %15

15:                                               ; preds = %9, %1
  %16 = phi i1 [ false, %1 ], [ %14, %9 ]
  %17 = zext i1 %16 to i32
  ret i32 %17
}

; Function Attrs: inlinehint nounwind uwtable
define internal ptr @Gia_ManObj(ptr noundef %0, i32 noundef %1) #5 {
  %3 = alloca ptr, align 8
  %4 = alloca i32, align 4
  store ptr %0, ptr %3, align 8, !tbaa !30
  store i32 %1, ptr %4, align 4, !tbaa !19
  %5 = load ptr, ptr %3, align 8, !tbaa !30
  %6 = getelementptr inbounds nuw %struct.Gia_Man_t_, ptr %5, i32 0, i32 6
  %7 = load ptr, ptr %6, align 8, !tbaa !77
  %8 = load i32, ptr %4, align 4, !tbaa !19
  %9 = sext i32 %8 to i64
  %10 = getelementptr inbounds %struct.Gia_Obj_t_, ptr %7, i64 %9
  ret ptr %10
}

; Function Attrs: inlinehint nounwind uwtable
define internal void @Gia_ObjSetTravIdCurrentId(ptr noundef %0, i32 noundef %1) #5 {
  %3 = alloca ptr, align 8
  %4 = alloca i32, align 4
  store ptr %0, ptr %3, align 8, !tbaa !30
  store i32 %1, ptr %4, align 4, !tbaa !19
  %5 = load ptr, ptr %3, align 8, !tbaa !30
  %6 = getelementptr inbounds nuw %struct.Gia_Man_t_, ptr %5, i32 0, i32 24
  %7 = load i32, ptr %6, align 8, !tbaa !130
  %8 = load ptr, ptr %3, align 8, !tbaa !30
  %9 = getelementptr inbounds nuw %struct.Gia_Man_t_, ptr %8, i32 0, i32 80
  %10 = load ptr, ptr %9, align 8, !tbaa !129
  %11 = load i32, ptr %4, align 4, !tbaa !19
  %12 = sext i32 %11 to i64
  %13 = getelementptr inbounds i32, ptr %10, i64 %12
  store i32 %7, ptr %13, align 4, !tbaa !19
  ret void
}

; Function Attrs: inlinehint nounwind uwtable
define internal i32 @Gia_ObjIsTravIdCurrentId(ptr noundef %0, i32 noundef %1) #5 {
  %3 = alloca ptr, align 8
  %4 = alloca i32, align 4
  store ptr %0, ptr %3, align 8, !tbaa !30
  store i32 %1, ptr %4, align 4, !tbaa !19
  %5 = load ptr, ptr %3, align 8, !tbaa !30
  %6 = getelementptr inbounds nuw %struct.Gia_Man_t_, ptr %5, i32 0, i32 80
  %7 = load ptr, ptr %6, align 8, !tbaa !129
  %8 = load i32, ptr %4, align 4, !tbaa !19
  %9 = sext i32 %8 to i64
  %10 = getelementptr inbounds i32, ptr %7, i64 %9
  %11 = load i32, ptr %10, align 4, !tbaa !19
  %12 = load ptr, ptr %3, align 8, !tbaa !30
  %13 = getelementptr inbounds nuw %struct.Gia_Man_t_, ptr %12, i32 0, i32 24
  %14 = load i32, ptr %13, align 8, !tbaa !130
  %15 = icmp eq i32 %11, %14
  %16 = zext i1 %15 to i32
  ret i32 %16
}

; Function Attrs: nounwind uwtable
define void @Cbs2_ManCreateFanout_rec(ptr noundef %0, i32 noundef %1) #0 {
  %3 = alloca ptr, align 8
  %4 = alloca i32, align 4
  %5 = alloca ptr, align 8
  %6 = alloca i32, align 4
  %7 = alloca i32, align 4
  %8 = alloca i32, align 4
  store ptr %0, ptr %3, align 8, !tbaa !17
  store i32 %1, ptr %4, align 4, !tbaa !19
  call void @llvm.lifetime.start.p0(i64 8, ptr %5) #11
  call void @llvm.lifetime.start.p0(i64 4, ptr %6) #11
  call void @llvm.lifetime.start.p0(i64 4, ptr %7) #11
  %9 = load i32, ptr %4, align 4, !tbaa !19
  %10 = icmp ne i32 %9, 0
  br i1 %10, label %11, label %18

11:                                               ; preds = %2
  %12 = load ptr, ptr %3, align 8, !tbaa !17
  %13 = getelementptr inbounds nuw %struct.Cbs2_Man_t_, ptr %12, i32 0, i32 1
  %14 = load ptr, ptr %13, align 8, !tbaa !41
  %15 = load i32, ptr %4, align 4, !tbaa !19
  %16 = call i32 @Gia_ObjIsTravIdCurrentId(ptr noundef %14, i32 noundef %15)
  %17 = icmp ne i32 %16, 0
  br i1 %17, label %18, label %19

18:                                               ; preds = %11, %2
  store i32 1, ptr %8, align 4
  br label %48

19:                                               ; preds = %11
  %20 = load ptr, ptr %3, align 8, !tbaa !17
  %21 = getelementptr inbounds nuw %struct.Cbs2_Man_t_, ptr %20, i32 0, i32 1
  %22 = load ptr, ptr %21, align 8, !tbaa !41
  %23 = load i32, ptr %4, align 4, !tbaa !19
  call void @Gia_ObjSetTravIdCurrentId(ptr noundef %22, i32 noundef %23)
  %24 = load ptr, ptr %3, align 8, !tbaa !17
  %25 = getelementptr inbounds nuw %struct.Cbs2_Man_t_, ptr %24, i32 0, i32 1
  %26 = load ptr, ptr %25, align 8, !tbaa !41
  %27 = load i32, ptr %4, align 4, !tbaa !19
  %28 = call ptr @Gia_ManObj(ptr noundef %26, i32 noundef %27)
  store ptr %28, ptr %5, align 8, !tbaa !75
  %29 = load ptr, ptr %5, align 8, !tbaa !75
  %30 = call i32 @Gia_ObjIsCi(ptr noundef %29)
  %31 = icmp ne i32 %30, 0
  br i1 %31, label %32, label %33

32:                                               ; preds = %19
  store i32 1, ptr %8, align 4
  br label %48

33:                                               ; preds = %19
  %34 = load ptr, ptr %5, align 8, !tbaa !75
  %35 = load i32, ptr %4, align 4, !tbaa !19
  %36 = call i32 @Gia_ObjFaninId0(ptr noundef %34, i32 noundef %35)
  store i32 %36, ptr %6, align 4, !tbaa !19
  %37 = load ptr, ptr %5, align 8, !tbaa !75
  %38 = load i32, ptr %4, align 4, !tbaa !19
  %39 = call i32 @Gia_ObjFaninId1(ptr noundef %37, i32 noundef %38)
  store i32 %39, ptr %7, align 4, !tbaa !19
  %40 = load ptr, ptr %3, align 8, !tbaa !17
  %41 = load i32, ptr %6, align 4, !tbaa !19
  call void @Cbs2_ManCreateFanout_rec(ptr noundef %40, i32 noundef %41)
  %42 = load ptr, ptr %3, align 8, !tbaa !17
  %43 = load i32, ptr %7, align 4, !tbaa !19
  call void @Cbs2_ManCreateFanout_rec(ptr noundef %42, i32 noundef %43)
  %44 = load ptr, ptr %3, align 8, !tbaa !17
  %45 = load i32, ptr %4, align 4, !tbaa !19
  %46 = load i32, ptr %6, align 4, !tbaa !19
  %47 = load i32, ptr %7, align 4, !tbaa !19
  call void @Cbs2_ObjCreateFanout(ptr noundef %44, i32 noundef %45, i32 noundef %46, i32 noundef %47)
  store i32 0, ptr %8, align 4
  br label %48

48:                                               ; preds = %33, %32, %18
  call void @llvm.lifetime.end.p0(i64 4, ptr %7) #11
  call void @llvm.lifetime.end.p0(i64 4, ptr %6) #11
  call void @llvm.lifetime.end.p0(i64 8, ptr %5) #11
  %49 = load i32, ptr %8, align 4
  switch i32 %49, label %51 [
    i32 0, label %50
    i32 1, label %50
  ]

50:                                               ; preds = %48, %48
  ret void

51:                                               ; preds = %48
  unreachable
}