; Function Attrs: nofree nosync nounwind memory(readwrite, inaccessiblemem: none) uwtable
define void @Cbs2_ManCreateFanout_rec(ptr noundef %0, i32 noundef %1) local_unnamed_addr #16 {
  %.not = icmp eq i32 %1, 0
  br i1 %.not, label %common.ret29, label %3

3:                                                ; preds = %2
  %4 = getelementptr inbounds nuw i8, ptr %0, i64 48
  %5 = load ptr, ptr %4, align 8, !tbaa !38
  %6 = getelementptr i8, ptr %5, i64 176
  %.val24 = load i32, ptr %6, align 8, !tbaa !121
  %7 = getelementptr i8, ptr %5, i64 616
  %.val25 = load ptr, ptr %7, align 8, !tbaa !122
  %8 = sext i32 %1 to i64
  %9 = getelementptr inbounds i32, ptr %.val25, i64 %8
  %10 = load i32, ptr %9, align 4, !tbaa !60
  %.not28 = icmp eq i32 %10, %.val24
  br i1 %.not28, label %common.ret29, label %11

11:                                               ; preds = %3
  store i32 %.val24, ptr %9, align 4, !tbaa !60
  %12 = getelementptr i8, ptr %5, i64 32
  %.val = load ptr, ptr %12, align 8, !tbaa !67
  %13 = getelementptr inbounds %struct.Gia_Obj_t_, ptr %.val, i64 %8
  %.val21 = load i64, ptr %13, align 4
  %14 = and i64 %.val21, 2684354559
  %narrow.i.not = icmp eq i64 %14, 2684354559
  br i1 %narrow.i.not, label %common.ret29, label %15

common.ret29:                                     ; preds = %11, %2, %3, %15
  ret void

15:                                               ; preds = %11
  %16 = trunc i64 %.val21 to i32
  %17 = and i32 %16, 536870911
  %18 = sub nsw i32 %1, %17
  %19 = lshr i64 %.val21, 32
  %20 = trunc nuw i64 %19 to i32
  %21 = and i32 %20, 536870911
  %22 = sub nsw i32 %1, %21
  tail call void @Cbs2_ManCreateFanout_rec(ptr noundef nonnull %0, i32 noundef %18)
  tail call void @Cbs2_ManCreateFanout_rec(ptr noundef nonnull %0, i32 noundef %22)
  %23 = shl nsw i32 %1, 1
  %24 = getelementptr i8, ptr %0, i64 248
  %.val13.i = load ptr, ptr %24, align 8, !tbaa !35
  %25 = sext i32 %18 to i64
  %26 = getelementptr inbounds i32, ptr %.val13.i, i64 %25
  %27 = load i32, ptr %26, align 4, !tbaa !60
  %28 = getelementptr i8, ptr %0, i64 232
  %.val14.i = load ptr, ptr %28, align 8, !tbaa !35
  %29 = sext i32 %23 to i64
  %30 = getelementptr inbounds i32, ptr %.val14.i, i64 %29
  store i32 %27, ptr %30, align 4, !tbaa !60
  %31 = or disjoint i32 %23, 1
  %32 = sext i32 %22 to i64
  %33 = getelementptr inbounds i32, ptr %.val13.i, i64 %32
  %34 = load i32, ptr %33, align 4, !tbaa !60
  %35 = sext i32 %31 to i64
  %36 = getelementptr inbounds i32, ptr %.val14.i, i64 %35
  store i32 %34, ptr %36, align 4, !tbaa !60
  store i32 %23, ptr %26, align 4, !tbaa !60
  store i32 %31, ptr %33, align 4, !tbaa !60
  br label %common.ret29
}